target datalayout = "e-m:e-p270:32:32-p271:32:32-p272:64:64-i64:64-i128:128-f80:128-n8:16:32:64-S128"
target triple = "x86_64-unknown-linux-gnu"

%"class.std::set.0" = type { %"class.std::_Rb_tree.1" }
%"class.std::_Rb_tree.1" = type { %"struct.std::_Rb_tree<QuantLib::Observer *, QuantLib::Observer *, std::_Identity<QuantLib::Observer *>, std::less<QuantLib::Observer *>>::_Rb_tree_impl" }
%"struct.std::_Rb_tree<QuantLib::Observer *, QuantLib::Observer *, std::_Identity<QuantLib::Observer *>, std::less<QuantLib::Observer *>>::_Rb_tree_impl" = type { [8 x i8], %"struct.std::_Rb_tree_header" }
%"struct.std::_Rb_tree_header" = type { %"struct.std::_Rb_tree_node_base", i64 }
%"struct.std::_Rb_tree_node_base" = type { i32, ptr, ptr, ptr }
%"class.std::set" = type { %"class.std::_Rb_tree" }
%"class.std::_Rb_tree" = type { %"struct.std::_Rb_tree<boost::shared_ptr<QuantLib::Observable>, boost::shared_ptr<QuantLib::Observable>, std::_Identity<boost::shared_ptr<QuantLib::Observable>>, std::less<boost::shared_ptr<QuantLib::Observable>>>::_Rb_tree_impl" }
%"struct.std::_Rb_tree<boost::shared_ptr<QuantLib::Observable>, boost::shared_ptr<QuantLib::Observable>, std::_Identity<boost::shared_ptr<QuantLib::Observable>>, std::less<boost::shared_ptr<QuantLib::Observable>>>::_Rb_tree_impl" = type { [8 x i8], %"struct.std::_Rb_tree_header" }
%"class.QuantLib::Observable" = type { ptr, %"class.std::set.0" }
%"class.QuantLib::Observer" = type { ptr, %"class.std::set" }
%"class.std::vector.35" = type { %"struct.std::_Vector_base.36" }
%"struct.std::_Vector_base.36" = type { %"struct.std::_Vector_base<double, std::allocator<double>>::_Vector_impl" }
%"struct.std::_Vector_base<double, std::allocator<double>>::_Vector_impl" = type { %"struct.std::_Vector_base<double, std::allocator<double>>::_Vector_impl_data" }
%"struct.std::_Vector_base<double, std::allocator<double>>::_Vector_impl_data" = type { ptr, ptr, ptr }
%"class.QuantLib::RangeAccrualPricer" = type { %"class.QuantLib::FloatingRateCouponPricer.base", ptr, double, double, double, %"class.std::vector.35", %"class.std::vector.35", %"class.std::vector.35", i64, double, double, double, double, double, double, %"class.QuantLib::Observer", %"class.QuantLib::Observable" }
%"class.QuantLib::FloatingRateCouponPricer.base" = type { ptr }

; Function Attrs: mustprogress nounwind uwtable
define noundef double @_ZNK8QuantLib23RangeAccrualPricerByBgm19derLambdaDerLambdaTEd(ptr noundef nonnull align 8 dereferenceable(224) %this, double noundef %U) #1 align 2 {
entry:
  %retval = alloca double, align 8
  %this.addr = alloca ptr, align 8
  %U.addr = alloca double, align 8
  %p = alloca double, align 8
  store ptr %this, ptr %this.addr, align 8, !tbaa !3
  store double %U, ptr %U.addr, align 8, !tbaa !31
  %this1 = load ptr, ptr %this.addr, align 8
  %startTime_ = getelementptr inbounds nuw %"class.QuantLib::RangeAccrualPricer", ptr %this1, i32 0, i32 2
  %0 = load double, ptr %startTime_, align 8, !tbaa !83
  %cmp = fcmp ogt double %0, 0.000000e+00
  br i1 %cmp, label %if.then, label %if.else

if.then:                                          ; preds = %entry
  call void @llvm.lifetime.start.p0(i64 8, ptr %p) #18
  %1 = load double, ptr %U.addr, align 8, !tbaa !31
  %startTime_2 = getelementptr inbounds nuw %"class.QuantLib::RangeAccrualPricer", ptr %this1, i32 0, i32 2
  %2 = load double, ptr %startTime_2, align 8, !tbaa !83
  %sub = fsub double %1, %2
  %accrualFactor_ = getelementptr inbounds nuw %"class.QuantLib::RangeAccrualPricer", ptr %this1, i32 0, i32 4
  %3 = load double, ptr %accrualFactor_, align 8, !tbaa !81
  %div = fdiv double %sub, %3
  store double %div, ptr %p, align 8, !tbaa !31
  %4 = load double, ptr %p, align 8, !tbaa !31
  store double %4, ptr %retval, align 8
  call void @llvm.lifetime.end.p0(i64 8, ptr %p) #18
  br label %return

if.else:                                          ; preds = %entry
  store double 0.000000e+00, ptr %retval, align 8
  br label %return

return:                                           ; preds = %if.else, %if.then
  %5 = load double, ptr %retval, align 8
  ret double %5
}