; Function Attrs: mustprogress nofree norecurse nosync nounwind willreturn memory(argmem: read) uwtable
define noundef double @_ZNK8QuantLib23RangeAccrualPricerByBgm19derLambdaDerLambdaTEd(ptr nocapture noundef nonnull readonly align 8 dereferenceable(224) %this, double noundef %U) local_unnamed_addr #17 align 2 {
entry:
  %startTime_ = getelementptr inbounds nuw i8, ptr %this, i64 16
  %0 = load double, ptr %startTime_, align 8, !tbaa !115
  %cmp = fcmp ogt double %0, 0.000000e+00
  %sub = fsub double %U, %0
  %accrualFactor_ = getelementptr inbounds nuw i8, ptr %this, i64 32
  %1 = load double, ptr %accrualFactor_, align 8
  %div = fdiv double %sub, %1
  %retval.0 = select i1 %cmp, double %div, double 0.000000e+00
  ret double %retval.0
}